; Function Attrs: mustprogress nofree nounwind willreturn memory(read, inaccessiblemem: none) uwtable
define dso_local noundef zeroext i1 @_ZNK4Luau23DuplicateTypeDefinitioneqERKS0_(ptr noundef nonnull readonly align 8 captures(none) dereferenceable(52) %0, ptr noundef nonnull readonly align 8 captures(none) dereferenceable(52) %1) local_unnamed_addr #7 align 2 {
  %3 = getelementptr inbounds nuw i8, ptr %0, i64 8
  %4 = load i64, ptr %3, align 8, !tbaa !23
  %5 = getelementptr inbounds nuw i8, ptr %1, i64 8
  %6 = load i64, ptr %5, align 8, !tbaa !23
  %7 = icmp eq i64 %4, %6
  br i1 %7, label %8, label %_ZSteqIN4Luau8LocationES1_ENSt9enable_ifIXsr14is_convertibleIDTeqclsr3stdE7declvalIRKT_EEclsr3stdE7declvalIRKT0_EEEbEE5valueEbE4typeERKSt8optionalIS3_ERKSC_IS6_E.exit

8:                                                ; preds = %2
  %9 = icmp eq i64 %4, 0
  br i1 %9, label %_ZSteqIcEN9__gnu_cxx11__enable_ifIXsr9__is_charIT_EE7__valueEbE6__typeERKNSt7__cxx1112basic_stringIS2_St11char_traitsIS2_ESaIS2_EEESC_.exit.thread, label %_ZSteqIcEN9__gnu_cxx11__enable_ifIXsr9__is_charIT_EE7__valueEbE6__typeERKNSt7__cxx1112basic_stringIS2_St11char_traitsIS2_ESaIS2_EEESC_.exit

_ZSteqIcEN9__gnu_cxx11__enable_ifIXsr9__is_charIT_EE7__valueEbE6__typeERKNSt7__cxx1112basic_stringIS2_St11char_traitsIS2_ESaIS2_EEESC_.exit: ; preds = %8
  %10 = load ptr, ptr %1, align 8, !tbaa !19
  %11 = load ptr, ptr %0, align 8, !tbaa !19
  %bcmp.i = tail call i32 @bcmp(ptr %11, ptr %10, i64 %4)
  %12 = icmp eq i32 %bcmp.i, 0
  br i1 %12, label %_ZSteqIcEN9__gnu_cxx11__enable_ifIXsr9__is_charIT_EE7__valueEbE6__typeERKNSt7__cxx1112basic_stringIS2_St11char_traitsIS2_ESaIS2_EEESC_.exit.thread, label %_ZSteqIN4Luau8LocationES1_ENSt9enable_ifIXsr14is_convertibleIDTeqclsr3stdE7declvalIRKT_EEclsr3stdE7declvalIRKT0_EEEbEE5valueEbE4typeERKSt8optionalIS3_ERKSC_IS6_E.exit

_ZSteqIcEN9__gnu_cxx11__enable_ifIXsr9__is_charIT_EE7__valueEbE6__typeERKNSt7__cxx1112basic_stringIS2_St11char_traitsIS2_ESaIS2_EEESC_.exit.thread: ; preds = %8, %_ZSteqIcEN9__gnu_cxx11__enable_ifIXsr9__is_charIT_EE7__valueEbE6__typeERKNSt7__cxx1112basic_stringIS2_St11char_traitsIS2_ESaIS2_EEESC_.exit
  %13 = getelementptr inbounds nuw i8, ptr %0, i64 48
  %14 = load i8, ptr %13, align 8, !tbaa !86, !range !50, !noundef !51
  %15 = trunc nuw i8 %14 to i1
  %16 = getelementptr inbounds nuw i8, ptr %1, i64 48
  %17 = load i8, ptr %16, align 8, !tbaa !86, !range !50, !noundef !51
  %18 = icmp eq i8 %14, %17
  %brmerge.not.i = and i1 %18, %15
  br i1 %brmerge.not.i, label %19, label %_ZSteqIN4Luau8LocationES1_ENSt9enable_ifIXsr14is_convertibleIDTeqclsr3stdE7declvalIRKT_EEclsr3stdE7declvalIRKT0_EEEbEE5valueEbE4typeERKSt8optionalIS3_ERKSC_IS6_E.exit

19:                                               ; preds = %_ZSteqIcEN9__gnu_cxx11__enable_ifIXsr9__is_charIT_EE7__valueEbE6__typeERKNSt7__cxx1112basic_stringIS2_St11char_traitsIS2_ESaIS2_EEESC_.exit.thread
  %20 = getelementptr inbounds nuw i8, ptr %1, i64 32
  %21 = getelementptr inbounds nuw i8, ptr %0, i64 32
  %22 = getelementptr inbounds nuw i8, ptr %0, i64 36
  %23 = load i32, ptr %22, align 4, !tbaa !70
  %24 = getelementptr inbounds nuw i8, ptr %1, i64 36
  %25 = load i32, ptr %24, align 4, !tbaa !70
  %26 = icmp eq i32 %23, %25
  %27 = load i32, ptr %21, align 8
  %28 = load i32, ptr %20, align 8
  %29 = icmp eq i32 %27, %28
  %30 = select i1 %26, i1 %29, i1 false
  br i1 %30, label %31, label %_ZSteqIN4Luau8LocationES1_ENSt9enable_ifIXsr14is_convertibleIDTeqclsr3stdE7declvalIRKT_EEclsr3stdE7declvalIRKT0_EEEbEE5valueEbE4typeERKSt8optionalIS3_ERKSC_IS6_E.exit

31:                                               ; preds = %19
  %32 = getelementptr inbounds nuw i8, ptr %0, i64 40
  %33 = getelementptr inbounds nuw i8, ptr %1, i64 40
  %34 = getelementptr inbounds nuw i8, ptr %0, i64 44
  %35 = load i32, ptr %34, align 4, !tbaa !70
  %36 = getelementptr inbounds nuw i8, ptr %1, i64 44
  %37 = load i32, ptr %36, align 4, !tbaa !70
  %38 = icmp eq i32 %35, %37
  %39 = load i32, ptr %32, align 8
  %40 = load i32, ptr %33, align 8
  %41 = icmp eq i32 %39, %40
  %42 = select i1 %38, i1 %41, i1 false
  br label %_ZSteqIN4Luau8LocationES1_ENSt9enable_ifIXsr14is_convertibleIDTeqclsr3stdE7declvalIRKT_EEclsr3stdE7declvalIRKT0_EEEbEE5valueEbE4typeERKSt8optionalIS3_ERKSC_IS6_E.exit

_ZSteqIN4Luau8LocationES1_ENSt9enable_ifIXsr14is_convertibleIDTeqclsr3stdE7declvalIRKT_EEclsr3stdE7declvalIRKT0_EEEbEE5valueEbE4typeERKSt8optionalIS3_ERKSC_IS6_E.exit: ; preds = %2, %31, %19, %_ZSteqIcEN9__gnu_cxx11__enable_ifIXsr9__is_charIT_EE7__valueEbE6__typeERKNSt7__cxx1112basic_stringIS2_St11char_traitsIS2_ESaIS2_EEESC_.exit.thread, %_ZSteqIcEN9__gnu_cxx11__enable_ifIXsr9__is_charIT_EE7__valueEbE6__typeERKNSt7__cxx1112basic_stringIS2_St11char_traitsIS2_ESaIS2_EEESC_.exit
  %43 = phi i1 [ false, %_ZSteqIcEN9__gnu_cxx11__enable_ifIXsr9__is_charIT_EE7__valueEbE6__typeERKNSt7__cxx1112basic_stringIS2_St11char_traitsIS2_ESaIS2_EEESC_.exit ], [ %18, %_ZSteqIcEN9__gnu_cxx11__enable_ifIXsr9__is_charIT_EE7__valueEbE6__typeERKNSt7__cxx1112basic_stringIS2_St11char_traitsIS2_ESaIS2_EEESC_.exit.thread ], [ false, %19 ], [ %42, %31 ], [ false, %2 ]
  ret i1 %43
}